
./little_tommy:     file format elf32-i386


Disassembly of section .init:

080483f4 <_init>:
 80483f4:	53                   	push   %ebx
 80483f5:	83 ec 08             	sub    $0x8,%esp
 80483f8:	e8 23 01 00 00       	call   8048520 <__x86.get_pc_thunk.bx>
 80483fd:	81 c3 03 1c 00 00    	add    $0x1c03,%ebx
 8048403:	8b 83 fc ff ff ff    	mov    -0x4(%ebx),%eax
 8048409:	85 c0                	test   %eax,%eax
 804840b:	74 05                	je     8048412 <_init+0x1e>
 804840d:	e8 ce 00 00 00       	call   80484e0 <__gmon_start__@plt>
 8048412:	83 c4 08             	add    $0x8,%esp
 8048415:	5b                   	pop    %ebx
 8048416:	c3                   	ret    

Disassembly of section .plt:

08048420 <.plt>:
 8048420:	ff 35 04 a0 04 08    	pushl  0x804a004
 8048426:	ff 25 08 a0 04 08    	jmp    *0x804a008
 804842c:	00 00                	add    %al,(%eax)
	...

08048430 <printf@plt>:
 8048430:	ff 25 0c a0 04 08    	jmp    *0x804a00c
 8048436:	68 00 00 00 00       	push   $0x0
 804843b:	e9 e0 ff ff ff       	jmp    8048420 <.plt>

08048440 <free@plt>:
 8048440:	ff 25 10 a0 04 08    	jmp    *0x804a010
 8048446:	68 08 00 00 00       	push   $0x8
 804844b:	e9 d0 ff ff ff       	jmp    8048420 <.plt>

08048450 <strdup@plt>:
 8048450:	ff 25 14 a0 04 08    	jmp    *0x804a014
 8048456:	68 10 00 00 00       	push   $0x10
 804845b:	e9 c0 ff ff ff       	jmp    8048420 <.plt>

08048460 <getchar@plt>:
 8048460:	ff 25 18 a0 04 08    	jmp    *0x804a018
 8048466:	68 18 00 00 00       	push   $0x18
 804846b:	e9 b0 ff ff ff       	jmp    8048420 <.plt>

08048470 <fgets@plt>:
 8048470:	ff 25 1c a0 04 08    	jmp    *0x804a01c
 8048476:	68 20 00 00 00       	push   $0x20
 804847b:	e9 a0 ff ff ff       	jmp    8048420 <.plt>

08048480 <malloc@plt>:
 8048480:	ff 25 20 a0 04 08    	jmp    *0x804a020
 8048486:	68 28 00 00 00       	push   $0x28
 804848b:	e9 90 ff ff ff       	jmp    8048420 <.plt>

08048490 <puts@plt>:
 8048490:	ff 25 24 a0 04 08    	jmp    *0x804a024
 8048496:	68 30 00 00 00       	push   $0x30
 804849b:	e9 80 ff ff ff       	jmp    8048420 <.plt>

080484a0 <system@plt>:
 80484a0:	ff 25 28 a0 04 08    	jmp    *0x804a028
 80484a6:	68 38 00 00 00       	push   $0x38
 80484ab:	e9 70 ff ff ff       	jmp    8048420 <.plt>

080484b0 <strlen@plt>:
 80484b0:	ff 25 2c a0 04 08    	jmp    *0x804a02c
 80484b6:	68 40 00 00 00       	push   $0x40
 80484bb:	e9 60 ff ff ff       	jmp    8048420 <.plt>

080484c0 <__libc_start_main@plt>:
 80484c0:	ff 25 30 a0 04 08    	jmp    *0x804a030
 80484c6:	68 48 00 00 00       	push   $0x48
 80484cb:	e9 50 ff ff ff       	jmp    8048420 <.plt>

080484d0 <strncpy@plt>:
 80484d0:	ff 25 34 a0 04 08    	jmp    *0x804a034
 80484d6:	68 50 00 00 00       	push   $0x50
 80484db:	e9 40 ff ff ff       	jmp    8048420 <.plt>

Disassembly of section .plt.got:

080484e0 <__gmon_start__@plt>:
 80484e0:	ff 25 fc 9f 04 08    	jmp    *0x8049ffc
 80484e6:	66 90                	xchg   %ax,%ax

Disassembly of section .text:

080484f0 <_start>:
 80484f0:	31 ed                	xor    %ebp,%ebp
 80484f2:	5e                   	pop    %esi
 80484f3:	89 e1                	mov    %esp,%ecx
 80484f5:	83 e4 f0             	and    $0xfffffff0,%esp
 80484f8:	50                   	push   %eax
 80484f9:	54                   	push   %esp
 80484fa:	52                   	push   %edx
 80484fb:	68 c0 89 04 08       	push   $0x80489c0
 8048500:	68 60 89 04 08       	push   $0x8048960
 8048505:	51                   	push   %ecx
 8048506:	56                   	push   %esi
 8048507:	68 5c 86 04 08       	push   $0x804865c
 804850c:	e8 af ff ff ff       	call   80484c0 <__libc_start_main@plt>
 8048511:	f4                   	hlt    
 8048512:	66 90                	xchg   %ax,%ax
 8048514:	66 90                	xchg   %ax,%ax
 8048516:	66 90                	xchg   %ax,%ax
 8048518:	66 90                	xchg   %ax,%ax
 804851a:	66 90                	xchg   %ax,%ax
 804851c:	66 90                	xchg   %ax,%ax
 804851e:	66 90                	xchg   %ax,%ax

08048520 <__x86.get_pc_thunk.bx>:
 8048520:	8b 1c 24             	mov    (%esp),%ebx
 8048523:	c3                   	ret    
 8048524:	66 90                	xchg   %ax,%ax
 8048526:	66 90                	xchg   %ax,%ax
 8048528:	66 90                	xchg   %ax,%ax
 804852a:	66 90                	xchg   %ax,%ax
 804852c:	66 90                	xchg   %ax,%ax
 804852e:	66 90                	xchg   %ax,%ax

08048530 <deregister_tm_clones>:
 8048530:	b8 43 a0 04 08       	mov    $0x804a043,%eax
 8048535:	2d 40 a0 04 08       	sub    $0x804a040,%eax
 804853a:	83 f8 06             	cmp    $0x6,%eax
 804853d:	76 1a                	jbe    8048559 <deregister_tm_clones+0x29>
 804853f:	b8 00 00 00 00       	mov    $0x0,%eax
 8048544:	85 c0                	test   %eax,%eax
 8048546:	74 11                	je     8048559 <deregister_tm_clones+0x29>
 8048548:	55                   	push   %ebp
 8048549:	89 e5                	mov    %esp,%ebp
 804854b:	83 ec 14             	sub    $0x14,%esp
 804854e:	68 40 a0 04 08       	push   $0x804a040
 8048553:	ff d0                	call   *%eax
 8048555:	83 c4 10             	add    $0x10,%esp
 8048558:	c9                   	leave  
 8048559:	f3 c3                	repz ret 
 804855b:	90                   	nop
 804855c:	8d 74 26 00          	lea    0x0(%esi,%eiz,1),%esi

08048560 <register_tm_clones>:
 8048560:	b8 40 a0 04 08       	mov    $0x804a040,%eax
 8048565:	2d 40 a0 04 08       	sub    $0x804a040,%eax
 804856a:	c1 f8 02             	sar    $0x2,%eax
 804856d:	89 c2                	mov    %eax,%edx
 804856f:	c1 ea 1f             	shr    $0x1f,%edx
 8048572:	01 d0                	add    %edx,%eax
 8048574:	d1 f8                	sar    %eax
 8048576:	74 1b                	je     8048593 <register_tm_clones+0x33>
 8048578:	ba 00 00 00 00       	mov    $0x0,%edx
 804857d:	85 d2                	test   %edx,%edx
 804857f:	74 12                	je     8048593 <register_tm_clones+0x33>
 8048581:	55                   	push   %ebp
 8048582:	89 e5                	mov    %esp,%ebp
 8048584:	83 ec 10             	sub    $0x10,%esp
 8048587:	50                   	push   %eax
 8048588:	68 40 a0 04 08       	push   $0x804a040
 804858d:	ff d2                	call   *%edx
 804858f:	83 c4 10             	add    $0x10,%esp
 8048592:	c9                   	leave  
 8048593:	f3 c3                	repz ret 
 8048595:	8d 74 26 00          	lea    0x0(%esi,%eiz,1),%esi
 8048599:	8d bc 27 00 00 00 00 	lea    0x0(%edi,%eiz,1),%edi

080485a0 <__do_global_dtors_aux>:
 80485a0:	80 3d 44 a0 04 08 00 	cmpb   $0x0,0x804a044
 80485a7:	75 13                	jne    80485bc <__do_global_dtors_aux+0x1c>
 80485a9:	55                   	push   %ebp
 80485aa:	89 e5                	mov    %esp,%ebp
 80485ac:	83 ec 08             	sub    $0x8,%esp
 80485af:	e8 7c ff ff ff       	call   8048530 <deregister_tm_clones>
 80485b4:	c6 05 44 a0 04 08 01 	movb   $0x1,0x804a044
 80485bb:	c9                   	leave  
 80485bc:	f3 c3                	repz ret 
 80485be:	66 90                	xchg   %ax,%ax

080485c0 <frame_dummy>:
 80485c0:	b8 10 9f 04 08       	mov    $0x8049f10,%eax
 80485c5:	8b 10                	mov    (%eax),%edx
 80485c7:	85 d2                	test   %edx,%edx
 80485c9:	75 05                	jne    80485d0 <frame_dummy+0x10>
 80485cb:	eb 93                	jmp    8048560 <register_tm_clones>
 80485cd:	8d 76 00             	lea    0x0(%esi),%esi
 80485d0:	ba 00 00 00 00       	mov    $0x0,%edx
 80485d5:	85 d2                	test   %edx,%edx
 80485d7:	74 f2                	je     80485cb <frame_dummy+0xb>
 80485d9:	55                   	push   %ebp
 80485da:	89 e5                	mov    %esp,%ebp
 80485dc:	83 ec 14             	sub    $0x14,%esp
 80485df:	50                   	push   %eax
 80485e0:	ff d2                	call   *%edx
 80485e2:	83 c4 10             	add    $0x10,%esp
 80485e5:	c9                   	leave  
 80485e6:	e9 75 ff ff ff       	jmp    8048560 <register_tm_clones>

080485eb <read_s>:
 80485eb:	55                   	push   %ebp
 80485ec:	89 e5                	mov    %esp,%ebp
 80485ee:	83 ec 18             	sub    $0x18,%esp
 80485f1:	c7 45 f4 00 00 00 00 	movl   $0x0,-0xc(%ebp)
 80485f8:	eb 16                	jmp    8048610 <read_s+0x25>
 80485fa:	8b 45 f4             	mov    -0xc(%ebp),%eax
 80485fd:	8d 50 01             	lea    0x1(%eax),%edx
 8048600:	89 55 f4             	mov    %edx,-0xc(%ebp)
 8048603:	89 c2                	mov    %eax,%edx
 8048605:	8b 45 08             	mov    0x8(%ebp),%eax
 8048608:	01 c2                	add    %eax,%edx
 804860a:	0f b6 45 f3          	movzbl -0xd(%ebp),%eax
 804860e:	88 02                	mov    %al,(%edx)
 8048610:	e8 4b fe ff ff       	call   8048460 <getchar@plt>
 8048615:	88 45 f3             	mov    %al,-0xd(%ebp)
 8048618:	80 7d f3 0a          	cmpb   $0xa,-0xd(%ebp)
 804861c:	74 11                	je     804862f <read_s+0x44>
 804861e:	80 7d f3 ff          	cmpb   $0xff,-0xd(%ebp)
 8048622:	74 0b                	je     804862f <read_s+0x44>
 8048624:	8b 45 0c             	mov    0xc(%ebp),%eax
 8048627:	83 e8 01             	sub    $0x1,%eax
 804862a:	3b 45 f4             	cmp    -0xc(%ebp),%eax
 804862d:	7f cb                	jg     80485fa <read_s+0xf>
 804862f:	8b 55 f4             	mov    -0xc(%ebp),%edx
 8048632:	8b 45 08             	mov    0x8(%ebp),%eax
 8048635:	01 d0                	add    %edx,%eax
 8048637:	c6 00 00             	movb   $0x0,(%eax)
 804863a:	8b 45 0c             	mov    0xc(%ebp),%eax
 804863d:	83 e8 01             	sub    $0x1,%eax
 8048640:	3b 45 f4             	cmp    -0xc(%ebp),%eax
 8048643:	75 14                	jne    8048659 <read_s+0x6e>
 8048645:	e8 16 fe ff ff       	call   8048460 <getchar@plt>
 804864a:	89 45 f4             	mov    %eax,-0xc(%ebp)
 804864d:	83 7d f4 0a          	cmpl   $0xa,-0xc(%ebp)
 8048651:	74 06                	je     8048659 <read_s+0x6e>
 8048653:	83 7d f4 ff          	cmpl   $0xffffffff,-0xc(%ebp)
 8048657:	75 ec                	jne    8048645 <read_s+0x5a>
 8048659:	90                   	nop
 804865a:	c9                   	leave  
 804865b:	c3                   	ret    

0804865c <main>:
 804865c:	8d 4c 24 04          	lea    0x4(%esp),%ecx
 8048660:	83 e4 f0             	and    $0xfffffff0,%esp
 8048663:	ff 71 fc             	pushl  -0x4(%ecx)
 8048666:	55                   	push   %ebp
 8048667:	89 e5                	mov    %esp,%ebp
 8048669:	53                   	push   %ebx
 804866a:	51                   	push   %ecx
 804866b:	81 ec 10 01 00 00    	sub    $0x110,%esp
 8048671:	65 a1 14 00 00 00    	mov    %gs:0x14,%eax
 8048677:	89 45 f4             	mov    %eax,-0xc(%ebp)
 804867a:	31 c0                	xor    %eax,%eax
 804867c:	83 ec 0c             	sub    $0xc,%esp
 804867f:	68 e0 89 04 08       	push   $0x80489e0
 8048684:	e8 07 fe ff ff       	call   8048490 <puts@plt>
 8048689:	83 c4 10             	add    $0x10,%esp
 804868c:	c6 85 ed fe ff ff 00 	movb   $0x0,-0x113(%ebp)
 8048693:	83 ec 0c             	sub    $0xc,%esp
 8048696:	68 4c 8a 04 08       	push   $0x8048a4c
 804869b:	e8 90 fd ff ff       	call   8048430 <printf@plt>
 80486a0:	83 c4 10             	add    $0x10,%esp
 80486a3:	e8 b8 fd ff ff       	call   8048460 <getchar@plt>
 80486a8:	88 85 ee fe ff ff    	mov    %al,-0x112(%ebp)
 80486ae:	90                   	nop
 80486af:	e8 ac fd ff ff       	call   8048460 <getchar@plt>
 80486b4:	88 85 ef fe ff ff    	mov    %al,-0x111(%ebp)
 80486ba:	80 bd ef fe ff ff 0a 	cmpb   $0xa,-0x111(%ebp)
 80486c1:	74 09                	je     80486cc <main+0x70>
 80486c3:	80 bd ef fe ff ff ff 	cmpb   $0xff,-0x111(%ebp)
 80486ca:	75 e3                	jne    80486af <main+0x53>
 80486cc:	0f be 85 ee fe ff ff 	movsbl -0x112(%ebp),%eax
 80486d3:	83 e8 31             	sub    $0x31,%eax
 80486d6:	83 f8 04             	cmp    $0x4,%eax
 80486d9:	77 b8                	ja     8048693 <main+0x37>
 80486db:	8b 04 85 0c 8c 04 08 	mov    0x8048c0c(,%eax,4),%eax
 80486e2:	ff e0                	jmp    *%eax
 80486e4:	83 ec 0c             	sub    $0xc,%esp
 80486e7:	6a 48                	push   $0x48
 80486e9:	e8 92 fd ff ff       	call   8048480 <malloc@plt>
 80486ee:	83 c4 10             	add    $0x10,%esp
 80486f1:	a3 48 a0 04 08       	mov    %eax,0x804a048
 80486f6:	83 ec 0c             	sub    $0xc,%esp
 80486f9:	68 c2 8a 04 08       	push   $0x8048ac2
 80486fe:	e8 2d fd ff ff       	call   8048430 <printf@plt>
 8048703:	83 c4 10             	add    $0x10,%esp
 8048706:	a1 40 a0 04 08       	mov    0x804a040,%eax
 804870b:	83 ec 04             	sub    $0x4,%esp
 804870e:	50                   	push   %eax
 804870f:	68 00 01 00 00       	push   $0x100
 8048714:	8d 85 f4 fe ff ff    	lea    -0x10c(%ebp),%eax
 804871a:	50                   	push   %eax
 804871b:	e8 50 fd ff ff       	call   8048470 <fgets@plt>
 8048720:	83 c4 10             	add    $0x10,%esp
 8048723:	a1 48 a0 04 08       	mov    0x804a048,%eax
 8048728:	89 c2                	mov    %eax,%edx
 804872a:	83 ec 04             	sub    $0x4,%esp
 804872d:	6a 1e                	push   $0x1e
 804872f:	8d 85 f4 fe ff ff    	lea    -0x10c(%ebp),%eax
 8048735:	50                   	push   %eax
 8048736:	52                   	push   %edx
 8048737:	e8 94 fd ff ff       	call   80484d0 <strncpy@plt>
 804873c:	83 c4 10             	add    $0x10,%esp
 804873f:	a1 48 a0 04 08       	mov    0x804a048,%eax
 8048744:	83 ec 0c             	sub    $0xc,%esp
 8048747:	50                   	push   %eax
 8048748:	e8 63 fd ff ff       	call   80484b0 <strlen@plt>
 804874d:	83 c4 10             	add    $0x10,%esp
 8048750:	89 85 f0 fe ff ff    	mov    %eax,-0x110(%ebp)
 8048756:	83 bd f0 fe ff ff 1e 	cmpl   $0x1e,-0x110(%ebp)
 804875d:	7f 14                	jg     8048773 <main+0x117>
 804875f:	a1 48 a0 04 08       	mov    0x804a048,%eax
 8048764:	8b 95 f0 fe ff ff    	mov    -0x110(%ebp),%edx
 804876a:	83 ea 01             	sub    $0x1,%edx
 804876d:	c6 04 10 00          	movb   $0x0,(%eax,%edx,1)
 8048771:	eb 09                	jmp    804877c <main+0x120>
 8048773:	a1 48 a0 04 08       	mov    0x804a048,%eax
 8048778:	c6 40 1f 00          	movb   $0x0,0x1f(%eax)
 804877c:	83 ec 0c             	sub    $0xc,%esp
 804877f:	68 d0 8a 04 08       	push   $0x8048ad0
 8048784:	e8 a7 fc ff ff       	call   8048430 <printf@plt>
 8048789:	83 c4 10             	add    $0x10,%esp
 804878c:	a1 40 a0 04 08       	mov    0x804a040,%eax
 8048791:	83 ec 04             	sub    $0x4,%esp
 8048794:	50                   	push   %eax
 8048795:	68 00 01 00 00       	push   $0x100
 804879a:	8d 85 f4 fe ff ff    	lea    -0x10c(%ebp),%eax
 80487a0:	50                   	push   %eax
 80487a1:	e8 ca fc ff ff       	call   8048470 <fgets@plt>
 80487a6:	83 c4 10             	add    $0x10,%esp
 80487a9:	a1 48 a0 04 08       	mov    0x804a048,%eax
 80487ae:	8d 50 20             	lea    0x20(%eax),%edx
 80487b1:	83 ec 04             	sub    $0x4,%esp
 80487b4:	6a 1e                	push   $0x1e
 80487b6:	8d 85 f4 fe ff ff    	lea    -0x10c(%ebp),%eax
 80487bc:	50                   	push   %eax
 80487bd:	52                   	push   %edx
 80487be:	e8 0d fd ff ff       	call   80484d0 <strncpy@plt>
 80487c3:	83 c4 10             	add    $0x10,%esp
 80487c6:	a1 48 a0 04 08       	mov    0x804a048,%eax
 80487cb:	83 c0 20             	add    $0x20,%eax
 80487ce:	83 ec 0c             	sub    $0xc,%esp
 80487d1:	50                   	push   %eax
 80487d2:	e8 d9 fc ff ff       	call   80484b0 <strlen@plt>
 80487d7:	83 c4 10             	add    $0x10,%esp
 80487da:	89 85 f0 fe ff ff    	mov    %eax,-0x110(%ebp)
 80487e0:	83 bd f0 fe ff ff 1e 	cmpl   $0x1e,-0x110(%ebp)
 80487e7:	7f 15                	jg     80487fe <main+0x1a2>
 80487e9:	a1 48 a0 04 08       	mov    0x804a048,%eax
 80487ee:	8b 95 f0 fe ff ff    	mov    -0x110(%ebp),%edx
 80487f4:	83 ea 01             	sub    $0x1,%edx
 80487f7:	c6 44 10 20 00       	movb   $0x0,0x20(%eax,%edx,1)
 80487fc:	eb 09                	jmp    8048807 <main+0x1ab>
 80487fe:	a1 48 a0 04 08       	mov    0x804a048,%eax
 8048803:	c6 40 3f 00          	movb   $0x0,0x3f(%eax)
 8048807:	a1 48 a0 04 08       	mov    0x804a048,%eax
 804880c:	83 ec 08             	sub    $0x8,%esp
 804880f:	50                   	push   %eax
 8048810:	68 dc 8a 04 08       	push   $0x8048adc
 8048815:	e8 16 fc ff ff       	call   8048430 <printf@plt>
 804881a:	83 c4 10             	add    $0x10,%esp
 804881d:	e9 2e 01 00 00       	jmp    8048950 <main+0x2f4>
 8048822:	a1 48 a0 04 08       	mov    0x804a048,%eax
 8048827:	85 c0                	test   %eax,%eax
 8048829:	75 15                	jne    8048840 <main+0x1e4>
 804882b:	83 ec 0c             	sub    $0xc,%esp
 804882e:	68 01 8b 04 08       	push   $0x8048b01
 8048833:	e8 58 fc ff ff       	call   8048490 <puts@plt>
 8048838:	83 c4 10             	add    $0x10,%esp
 804883b:	e9 10 01 00 00       	jmp    8048950 <main+0x2f4>
 8048840:	a1 48 a0 04 08       	mov    0x804a048,%eax
 8048845:	8b 50 40             	mov    0x40(%eax),%edx
 8048848:	a1 48 a0 04 08       	mov    0x804a048,%eax
 804884d:	8d 48 20             	lea    0x20(%eax),%ecx
 8048850:	a1 48 a0 04 08       	mov    0x804a048,%eax
 8048855:	89 c3                	mov    %eax,%ebx
 8048857:	a1 48 a0 04 08       	mov    0x804a048,%eax
 804885c:	83 ec 0c             	sub    $0xc,%esp
 804885f:	52                   	push   %edx
 8048860:	51                   	push   %ecx
 8048861:	53                   	push   %ebx
 8048862:	50                   	push   %eax
 8048863:	68 1c 8b 04 08       	push   $0x8048b1c
 8048868:	e8 c3 fb ff ff       	call   8048430 <printf@plt>
 804886d:	83 c4 20             	add    $0x20,%esp
 8048870:	e9 db 00 00 00       	jmp    8048950 <main+0x2f4>
 8048875:	a1 48 a0 04 08       	mov    0x804a048,%eax
 804887a:	85 c0                	test   %eax,%eax
 804887c:	75 15                	jne    8048893 <main+0x237>
 804887e:	83 ec 0c             	sub    $0xc,%esp
 8048881:	68 01 8b 04 08       	push   $0x8048b01
 8048886:	e8 05 fc ff ff       	call   8048490 <puts@plt>
 804888b:	83 c4 10             	add    $0x10,%esp
 804888e:	e9 bd 00 00 00       	jmp    8048950 <main+0x2f4>
 8048893:	a1 48 a0 04 08       	mov    0x804a048,%eax
 8048898:	83 ec 0c             	sub    $0xc,%esp
 804889b:	50                   	push   %eax
 804889c:	e8 9f fb ff ff       	call   8048440 <free@plt>
 80488a1:	83 c4 10             	add    $0x10,%esp
 80488a4:	83 ec 0c             	sub    $0xc,%esp
 80488a7:	68 81 8b 04 08       	push   $0x8048b81
 80488ac:	e8 df fb ff ff       	call   8048490 <puts@plt>
 80488b1:	83 c4 10             	add    $0x10,%esp
 80488b4:	e9 97 00 00 00       	jmp    8048950 <main+0x2f4>
 80488b9:	83 ec 0c             	sub    $0xc,%esp
 80488bc:	68 9f 8b 04 08       	push   $0x8048b9f
 80488c1:	e8 ca fb ff ff       	call   8048490 <puts@plt>
 80488c6:	83 c4 10             	add    $0x10,%esp
 80488c9:	a1 40 a0 04 08       	mov    0x804a040,%eax
 80488ce:	83 ec 04             	sub    $0x4,%esp
 80488d1:	50                   	push   %eax
 80488d2:	68 00 01 00 00       	push   $0x100
 80488d7:	8d 85 f4 fe ff ff    	lea    -0x10c(%ebp),%eax
 80488dd:	50                   	push   %eax
 80488de:	e8 8d fb ff ff       	call   8048470 <fgets@plt>
 80488e3:	83 c4 10             	add    $0x10,%esp
 80488e6:	83 ec 0c             	sub    $0xc,%esp
 80488e9:	8d 85 f4 fe ff ff    	lea    -0x10c(%ebp),%eax
 80488ef:	50                   	push   %eax
 80488f0:	e8 5b fb ff ff       	call   8048450 <strdup@plt>
 80488f5:	83 c4 10             	add    $0x10,%esp
 80488f8:	a3 4c a0 04 08       	mov    %eax,0x804a04c
 80488fd:	a1 4c a0 04 08       	mov    0x804a04c,%eax
 8048902:	83 ec 08             	sub    $0x8,%esp
 8048905:	50                   	push   %eax
 8048906:	68 b4 8b 04 08       	push   $0x8048bb4
 804890b:	e8 20 fb ff ff       	call   8048430 <printf@plt>
 8048910:	83 c4 10             	add    $0x10,%esp
 8048913:	eb 3b                	jmp    8048950 <main+0x2f4>
 8048915:	a1 48 a0 04 08       	mov    0x804a048,%eax
 804891a:	85 c0                	test   %eax,%eax
 804891c:	74 21                	je     804893f <main+0x2e3>
 804891e:	a1 48 a0 04 08       	mov    0x804a048,%eax
 8048923:	8b 40 40             	mov    0x40(%eax),%eax
 8048926:	3d 66 75 63 6b       	cmp    $0x6b637566,%eax
 804892b:	75 12                	jne    804893f <main+0x2e3>
 804892d:	83 ec 0c             	sub    $0xc,%esp
 8048930:	68 f4 8b 04 08       	push   $0x8048bf4
 8048935:	e8 66 fb ff ff       	call   80484a0 <system@plt>
 804893a:	83 c4 10             	add    $0x10,%esp
 804893d:	eb 10                	jmp    804894f <main+0x2f3>
 804893f:	83 ec 0c             	sub    $0xc,%esp
 8048942:	68 02 8c 04 08       	push   $0x8048c02
 8048947:	e8 44 fb ff ff       	call   8048490 <puts@plt>
 804894c:	83 c4 10             	add    $0x10,%esp
 804894f:	90                   	nop
 8048950:	e9 3e fd ff ff       	jmp    8048693 <main+0x37>
 8048955:	66 90                	xchg   %ax,%ax
 8048957:	66 90                	xchg   %ax,%ax
 8048959:	66 90                	xchg   %ax,%ax
 804895b:	66 90                	xchg   %ax,%ax
 804895d:	66 90                	xchg   %ax,%ax
 804895f:	90                   	nop

08048960 <__libc_csu_init>:
 8048960:	55                   	push   %ebp
 8048961:	57                   	push   %edi
 8048962:	56                   	push   %esi
 8048963:	53                   	push   %ebx
 8048964:	e8 b7 fb ff ff       	call   8048520 <__x86.get_pc_thunk.bx>
 8048969:	81 c3 97 16 00 00    	add    $0x1697,%ebx
 804896f:	83 ec 0c             	sub    $0xc,%esp
 8048972:	8b 6c 24 20          	mov    0x20(%esp),%ebp
 8048976:	8d b3 0c ff ff ff    	lea    -0xf4(%ebx),%esi
 804897c:	e8 73 fa ff ff       	call   80483f4 <_init>
 8048981:	8d 83 08 ff ff ff    	lea    -0xf8(%ebx),%eax
 8048987:	29 c6                	sub    %eax,%esi
 8048989:	c1 fe 02             	sar    $0x2,%esi
 804898c:	85 f6                	test   %esi,%esi
 804898e:	74 25                	je     80489b5 <__libc_csu_init+0x55>
 8048990:	31 ff                	xor    %edi,%edi
 8048992:	8d b6 00 00 00 00    	lea    0x0(%esi),%esi
 8048998:	83 ec 04             	sub    $0x4,%esp
 804899b:	ff 74 24 2c          	pushl  0x2c(%esp)
 804899f:	ff 74 24 2c          	pushl  0x2c(%esp)
 80489a3:	55                   	push   %ebp
 80489a4:	ff 94 bb 08 ff ff ff 	call   *-0xf8(%ebx,%edi,4)
 80489ab:	83 c7 01             	add    $0x1,%edi
 80489ae:	83 c4 10             	add    $0x10,%esp
 80489b1:	39 f7                	cmp    %esi,%edi
 80489b3:	75 e3                	jne    8048998 <__libc_csu_init+0x38>
 80489b5:	83 c4 0c             	add    $0xc,%esp
 80489b8:	5b                   	pop    %ebx
 80489b9:	5e                   	pop    %esi
 80489ba:	5f                   	pop    %edi
 80489bb:	5d                   	pop    %ebp
 80489bc:	c3                   	ret    
 80489bd:	8d 76 00             	lea    0x0(%esi),%esi

080489c0 <__libc_csu_fini>:
 80489c0:	f3 c3                	repz ret 

Disassembly of section .fini:

080489c4 <_fini>:
 80489c4:	53                   	push   %ebx
 80489c5:	83 ec 08             	sub    $0x8,%esp
 80489c8:	e8 53 fb ff ff       	call   8048520 <__x86.get_pc_thunk.bx>
 80489cd:	81 c3 33 16 00 00    	add    $0x1633,%ebx
 80489d3:	83 c4 08             	add    $0x8,%esp
 80489d6:	5b                   	pop    %ebx
 80489d7:	c3                   	ret    
